; Function Attrs: mustprogress nounwind uwtable
define hidden void @_ZN23GetFrameLocationClosure9do_threadEP6Thread(ptr nocapture noundef nonnull align 8 dereferenceable(72) %0, ptr noundef %1) unnamed_addr #0 align 2 {
  %3 = getelementptr inbounds i8, ptr %1, i64 1128
  %4 = load volatile i32, ptr %3, align 4
  tail call void asm sideeffect "", "~{memory},~{dirflag},~{fpsr},~{flags}"() #18, !srcloc !9
  %5 = add i32 %4, -57003
  %6 = icmp ult i32 %5, 4
  br i1 %6, label %18, label %7

7:                                                ; preds = %2
  %8 = tail call noundef ptr @_ZNK10JavaThread9threadObjEv(ptr noundef nonnull align 8 dereferenceable(1800) %1) #18
  %.not = icmp eq ptr %8, null
  br i1 %.not, label %18, label %9

9:                                                ; preds = %7
  %10 = getelementptr inbounds i8, ptr %0, i64 48
  %11 = load i32, ptr %10, align 8
  %12 = getelementptr inbounds i8, ptr %0, i64 56
  %13 = load ptr, ptr %12, align 8
  %14 = getelementptr inbounds i8, ptr %0, i64 64
  %15 = load ptr, ptr %14, align 8
  %16 = tail call noundef i32 @_ZN12JvmtiEnvBase18get_frame_locationEP10JavaThreadiPP10_jmethodIDPl(ptr nonnull align 8 poison, ptr noundef nonnull %1, i32 noundef %11, ptr noundef %13, ptr noundef %15)
  %17 = getelementptr inbounds i8, ptr %0, i64 16
  store i32 %16, ptr %17, align 8
  br label %18

18:                                               ; preds = %9, %7, %2
  ret void
}